; Function Attrs: mustprogress nofree norecurse nosync nounwind willreturn memory(argmem: read) uwtable
define hidden noundef zeroext i1 @_ZNK5clang7targets13ARMTargetInfo15hasBFloat16TypeEv(ptr nocapture noundef nonnull readonly align 8 dereferenceable(624) %0) unnamed_addr #5 align 2 {
  %2 = getelementptr inbounds nuw i8, ptr %0, i64 280
  %3 = load i8, ptr %2, align 8
  %4 = trunc i8 %3 to i1
  br i1 %4, label %11, label %5

5:                                                ; preds = %1
  %6 = getelementptr inbounds nuw i8, ptr %0, i64 612
  %7 = load i32, ptr %6, align 4
  %8 = and i32 %7, 31
  %.not = icmp eq i32 %8, 0
  br i1 %.not, label %11, label %9

9:                                                ; preds = %5
  %10 = and i32 %7, 1024
  %.not1 = icmp eq i32 %10, 0
  br label %11

11:                                               ; preds = %5, %9, %1
  %12 = phi i1 [ true, %1 ], [ false, %5 ], [ %.not1, %9 ]
  ret i1 %12
}